target datalayout = "e-m:e-p270:32:32-p271:32:32-p272:64:64-i64:64-i128:128-f80:128-n8:16:32:64-S128"
target triple = "x86_64-pc-linux-gnu"

%struct.GenerationContext = type { %struct.MemoryContextData, i32, i32, i32, i32, ptr, ptr, %struct.dlist_head }
%struct.MemoryContextData = type { i32, i8, i8, i64, ptr, ptr, ptr, ptr, ptr, ptr, ptr, ptr }
%struct.dlist_head = type { %struct.dlist_node }
%struct.dlist_node = type { ptr, ptr }
%struct.GenerationBlock = type { %struct.dlist_node, ptr, i64, i32, i32, ptr, ptr }

@TopMemoryContext = external global ptr, align 8
@.str = private unnamed_addr constant [14 x i8] c"out of memory\00", align 1
@.str.1 = private unnamed_addr constant [43 x i8] c"Failed while creating memory context \22%s\22.\00", align 1
@.str.2 = private unnamed_addr constant [13 x i8] c"generation.c\00", align 1
@__func__.GenerationContextCreate = private unnamed_addr constant [24 x i8] c"GenerationContextCreate\00", align 1

; Function Attrs: inlinehint nounwind uwtable
define internal void @dlist_push_head(ptr noundef %0, ptr noundef %1) #5 {
  %3 = alloca ptr, align 8
  %4 = alloca ptr, align 8
  store ptr %0, ptr %3, align 8
  store ptr %1, ptr %4, align 8
  %5 = load ptr, ptr %3, align 8
  %6 = getelementptr inbounds nuw %struct.dlist_head, ptr %5, i32 0, i32 0
  %7 = getelementptr inbounds nuw %struct.dlist_node, ptr %6, i32 0, i32 1
  %8 = load ptr, ptr %7, align 8
  %9 = icmp eq ptr %8, null
  br i1 %9, label %10, label %12

10:                                               ; preds = %2
  %11 = load ptr, ptr %3, align 8
  call void @dlist_init(ptr noundef %11)
  br label %12

12:                                               ; preds = %10, %2
  %13 = load ptr, ptr %3, align 8
  %14 = getelementptr inbounds nuw %struct.dlist_head, ptr %13, i32 0, i32 0
  %15 = getelementptr inbounds nuw %struct.dlist_node, ptr %14, i32 0, i32 1
  %16 = load ptr, ptr %15, align 8
  %17 = load ptr, ptr %4, align 8
  %18 = getelementptr inbounds nuw %struct.dlist_node, ptr %17, i32 0, i32 1
  store ptr %16, ptr %18, align 8
  %19 = load ptr, ptr %3, align 8
  %20 = getelementptr inbounds nuw %struct.dlist_head, ptr %19, i32 0, i32 0
  %21 = load ptr, ptr %4, align 8
  %22 = getelementptr inbounds nuw %struct.dlist_node, ptr %21, i32 0, i32 0
  store ptr %20, ptr %22, align 8
  %23 = load ptr, ptr %4, align 8
  %24 = load ptr, ptr %4, align 8
  %25 = getelementptr inbounds nuw %struct.dlist_node, ptr %24, i32 0, i32 1
  %26 = load ptr, ptr %25, align 8
  %27 = getelementptr inbounds nuw %struct.dlist_node, ptr %26, i32 0, i32 0
  store ptr %23, ptr %27, align 8
  %28 = load ptr, ptr %4, align 8
  %29 = load ptr, ptr %3, align 8
  %30 = getelementptr inbounds nuw %struct.dlist_head, ptr %29, i32 0, i32 0
  %31 = getelementptr inbounds nuw %struct.dlist_node, ptr %30, i32 0, i32 1
  store ptr %28, ptr %31, align 8
  ret void
}

; Function Attrs: inlinehint nounwind uwtable
define internal void @GenerationBlockInit(ptr noundef %0, ptr noundef %1, i64 noundef %2) #5 {
  %4 = alloca ptr, align 8
  %5 = alloca ptr, align 8
  %6 = alloca i64, align 8
  store ptr %0, ptr %4, align 8
  store ptr %1, ptr %5, align 8
  store i64 %2, ptr %6, align 8
  %7 = load ptr, ptr %4, align 8
  %8 = load ptr, ptr %5, align 8
  %9 = getelementptr inbounds nuw %struct.GenerationBlock, ptr %8, i32 0, i32 1
  store ptr %7, ptr %9, align 8
  %10 = load i64, ptr %6, align 8
  %11 = load ptr, ptr %5, align 8
  %12 = getelementptr inbounds nuw %struct.GenerationBlock, ptr %11, i32 0, i32 2
  store i64 %10, ptr %12, align 8
  %13 = load ptr, ptr %5, align 8
  %14 = getelementptr inbounds nuw %struct.GenerationBlock, ptr %13, i32 0, i32 3
  store i32 0, ptr %14, align 8
  %15 = load ptr, ptr %5, align 8
  %16 = getelementptr inbounds nuw %struct.GenerationBlock, ptr %15, i32 0, i32 4
  store i32 0, ptr %16, align 4
  %17 = load ptr, ptr %5, align 8
  %18 = getelementptr inbounds nuw i8, ptr %17, i64 56
  %19 = load ptr, ptr %5, align 8
  %20 = getelementptr inbounds nuw %struct.GenerationBlock, ptr %19, i32 0, i32 5
  store ptr %18, ptr %20, align 8
  %21 = load ptr, ptr %5, align 8
  %22 = load i64, ptr %6, align 8
  %23 = getelementptr inbounds nuw i8, ptr %21, i64 %22
  %24 = load ptr, ptr %5, align 8
  %25 = getelementptr inbounds nuw %struct.GenerationBlock, ptr %24, i32 0, i32 6
  store ptr %23, ptr %25, align 8
  br label %26

26:                                               ; preds = %3
  br label %27

27:                                               ; preds = %26
  ret void
}

; Function Attrs: inlinehint nounwind uwtable
define internal void @dlist_init(ptr noundef %0) #5 {
  %2 = alloca ptr, align 8
  store ptr %0, ptr %2, align 8
  %3 = load ptr, ptr %2, align 8
  %4 = getelementptr inbounds nuw %struct.dlist_head, ptr %3, i32 0, i32 0
  %5 = load ptr, ptr %2, align 8
  %6 = getelementptr inbounds nuw %struct.dlist_head, ptr %5, i32 0, i32 0
  %7 = getelementptr inbounds nuw %struct.dlist_node, ptr %6, i32 0, i32 0
  store ptr %4, ptr %7, align 8
  %8 = load ptr, ptr %2, align 8
  %9 = getelementptr inbounds nuw %struct.dlist_head, ptr %8, i32 0, i32 0
  %10 = getelementptr inbounds nuw %struct.dlist_node, ptr %9, i32 0, i32 1
  store ptr %4, ptr %10, align 8
  ret void
}

; Function Attrs: nounwind uwtable
define dso_local ptr @GenerationContextCreate(ptr noundef %0, ptr noundef %1, i64 noundef %2, i64 noundef %3, i64 noundef %4) #0 {
  %6 = alloca ptr, align 8
  %7 = alloca ptr, align 8
  %8 = alloca i64, align 8
  %9 = alloca i64, align 8
  %10 = alloca i64, align 8
  %11 = alloca i64, align 8
  %12 = alloca i64, align 8
  %13 = alloca ptr, align 8
  %14 = alloca ptr, align 8
  store ptr %0, ptr %6, align 8
  store ptr %1, ptr %7, align 8
  store i64 %2, ptr %8, align 8
  store i64 %3, ptr %9, align 8
  store i64 %4, ptr %10, align 8
  call void @llvm.lifetime.start.p0(i64 8, ptr %11) #12
  call void @llvm.lifetime.start.p0(i64 8, ptr %12) #12
  call void @llvm.lifetime.start.p0(i64 8, ptr %13) #12
  call void @llvm.lifetime.start.p0(i64 8, ptr %14) #12
  store i64 192, ptr %12, align 8
  %15 = load i64, ptr %8, align 8
  %16 = icmp ne i64 %15, 0
  br i1 %16, label %17, label %27

17:                                               ; preds = %5
  %18 = load i64, ptr %12, align 8
  %19 = load i64, ptr %8, align 8
  %20 = icmp ugt i64 %18, %19
  br i1 %20, label %21, label %23

21:                                               ; preds = %17
  %22 = load i64, ptr %12, align 8
  br label %25

23:                                               ; preds = %17
  %24 = load i64, ptr %8, align 8
  br label %25

25:                                               ; preds = %23, %21
  %26 = phi i64 [ %22, %21 ], [ %24, %23 ]
  store i64 %26, ptr %12, align 8
  br label %37

27:                                               ; preds = %5
  %28 = load i64, ptr %12, align 8
  %29 = load i64, ptr %9, align 8
  %30 = icmp ugt i64 %28, %29
  br i1 %30, label %31, label %33

31:                                               ; preds = %27
  %32 = load i64, ptr %12, align 8
  br label %35

33:                                               ; preds = %27
  %34 = load i64, ptr %9, align 8
  br label %35

35:                                               ; preds = %33, %31
  %36 = phi i64 [ %32, %31 ], [ %34, %33 ]
  store i64 %36, ptr %12, align 8
  br label %37

37:                                               ; preds = %35, %25
  %38 = load i64, ptr %12, align 8
  %39 = call noalias ptr @malloc(i64 noundef %38) #13
  store ptr %39, ptr %13, align 8
  %40 = load ptr, ptr %13, align 8
  %41 = icmp eq ptr %40, null
  br i1 %41, label %42, label %57

42:                                               ; preds = %37
  %43 = load ptr, ptr @TopMemoryContext, align 8
  call void @MemoryContextStats(ptr noundef %43)
  br label %44

44:                                               ; preds = %42
  br i1 true, label %45, label %47

45:                                               ; preds = %44
  %46 = call zeroext i1 @errstart_cold(i32 noundef 21, ptr noundef null) #14
  br i1 %46, label %49, label %54

47:                                               ; preds = %44
  %48 = call zeroext i1 @errstart(i32 noundef 21, ptr noundef null)
  br i1 %48, label %49, label %54

49:                                               ; preds = %47, %45
  %50 = call i32 @errcode(i32 noundef 8389)
  %51 = call i32 (ptr, ...) @errmsg(ptr noundef @.str)
  %52 = load ptr, ptr %7, align 8
  %53 = call i32 (ptr, ...) @errdetail(ptr noundef @.str.1, ptr noundef %52)
  call void @errfinish(ptr noundef @.str.2, i32 noundef 217, ptr noundef @__func__.GenerationContextCreate)
  br label %54

54:                                               ; preds = %49, %47, %45
  unreachable

55:                                               ; No predecessors!
  br label %56

56:                                               ; preds = %55
  br label %57

57:                                               ; preds = %56, %37
  %58 = load ptr, ptr %13, align 8
  %59 = getelementptr inbounds nuw %struct.GenerationContext, ptr %58, i32 0, i32 7
  call void @dlist_init(ptr noundef %59)
  %60 = load ptr, ptr %13, align 8
  %61 = getelementptr inbounds nuw i8, ptr %60, i64 128
  store ptr %61, ptr %14, align 8
  %62 = load i64, ptr %12, align 8
  %63 = sub i64 %62, 128
  store i64 %63, ptr %11, align 8
  %64 = load ptr, ptr %13, align 8
  %65 = load ptr, ptr %14, align 8
  %66 = load i64, ptr %11, align 8
  call void @GenerationBlockInit(ptr noundef %64, ptr noundef %65, i64 noundef %66)
  %67 = load ptr, ptr %13, align 8
  %68 = getelementptr inbounds nuw %struct.GenerationContext, ptr %67, i32 0, i32 7
  %69 = load ptr, ptr %14, align 8
  %70 = getelementptr inbounds nuw %struct.GenerationBlock, ptr %69, i32 0, i32 0
  call void @dlist_push_head(ptr noundef %68, ptr noundef %70)
  %71 = load ptr, ptr %14, align 8
  %72 = load ptr, ptr %13, align 8
  %73 = getelementptr inbounds nuw %struct.GenerationContext, ptr %72, i32 0, i32 5
  store ptr %71, ptr %73, align 8
  %74 = load ptr, ptr %13, align 8
  %75 = getelementptr inbounds nuw %struct.GenerationContext, ptr %74, i32 0, i32 6
  store ptr null, ptr %75, align 8
  %76 = load i64, ptr %9, align 8
  %77 = trunc i64 %76 to i32
  %78 = load ptr, ptr %13, align 8
  %79 = getelementptr inbounds nuw %struct.GenerationContext, ptr %78, i32 0, i32 1
  store i32 %77, ptr %79, align 8
  %80 = load i64, ptr %10, align 8
  %81 = trunc i64 %80 to i32
  %82 = load ptr, ptr %13, align 8
  %83 = getelementptr inbounds nuw %struct.GenerationContext, ptr %82, i32 0, i32 2
  store i32 %81, ptr %83, align 4
  %84 = load i64, ptr %9, align 8
  %85 = trunc i64 %84 to i32
  %86 = load ptr, ptr %13, align 8
  %87 = getelementptr inbounds nuw %struct.GenerationContext, ptr %86, i32 0, i32 3
  store i32 %85, ptr %87, align 8
  %88 = load i64, ptr %10, align 8
  %89 = icmp ult i64 %88, 1073741823
  br i1 %89, label %90, label %92

90:                                               ; preds = %57
  %91 = load i64, ptr %10, align 8
  br label %93

92:                                               ; preds = %57
  br label %93

93:                                               ; preds = %92, %90
  %94 = phi i64 [ %91, %90 ], [ 1073741823, %92 ]
  %95 = trunc i64 %94 to i32
  %96 = load ptr, ptr %13, align 8
  %97 = getelementptr inbounds nuw %struct.GenerationContext, ptr %96, i32 0, i32 4
  store i32 %95, ptr %97, align 4
  br label %98

98:                                               ; preds = %108, %93
  %99 = load ptr, ptr %13, align 8
  %100 = getelementptr inbounds nuw %struct.GenerationContext, ptr %99, i32 0, i32 4
  %101 = load i32, ptr %100, align 4
  %102 = zext i32 %101 to i64
  %103 = add i64 %102, 8
  %104 = load i64, ptr %10, align 8
  %105 = sub i64 %104, 56
  %106 = udiv i64 %105, 8
  %107 = icmp ugt i64 %103, %106
  br i1 %107, label %108, label %113

108:                                              ; preds = %98
  %109 = load ptr, ptr %13, align 8
  %110 = getelementptr inbounds nuw %struct.GenerationContext, ptr %109, i32 0, i32 4
  %111 = load i32, ptr %110, align 4
  %112 = lshr i32 %111, 1
  store i32 %112, ptr %110, align 4
  br label %98, !llvm.loop !4

113:                                              ; preds = %98
  %114 = load ptr, ptr %13, align 8
  %115 = load ptr, ptr %6, align 8
  %116 = load ptr, ptr %7, align 8
  call void @MemoryContextCreate(ptr noundef %114, i32 noundef 474, i32 noundef 4, ptr noundef %115, ptr noundef %116)
  %117 = load i64, ptr %11, align 8
  %118 = load ptr, ptr %13, align 8
  %119 = getelementptr inbounds nuw %struct.MemoryContextData, ptr %118, i32 0, i32 3
  store i64 %117, ptr %119, align 8
  %120 = load ptr, ptr %13, align 8
  call void @llvm.lifetime.end.p0(i64 8, ptr %14) #12
  call void @llvm.lifetime.end.p0(i64 8, ptr %13) #12
  call void @llvm.lifetime.end.p0(i64 8, ptr %12) #12
  call void @llvm.lifetime.end.p0(i64 8, ptr %11) #12
  ret ptr %120
}