; Function Attrs: nounwind uwtable
define dso_local nonnull ptr @GenerationContextCreate(ptr noundef %0, ptr noundef %1, i64 noundef %2, i64 noundef %3, i64 noundef %4) local_unnamed_addr #0 {
  %.not = icmp eq i64 %2, 0
  %. = select i1 %.not, i64 %3, i64 %2
  %6 = tail call i64 @llvm.umax.i64(i64 %., i64 192)
  %7 = tail call noalias ptr @malloc(i64 noundef %6) #14
  %8 = icmp eq ptr %7, null
  br i1 %8, label %9, label %dlist_push_head.exit

9:                                                ; preds = %5
  %10 = load ptr, ptr @TopMemoryContext, align 8
  tail call void @MemoryContextStats(ptr noundef %10) #15
  %11 = tail call zeroext i1 @errstart_cold(i32 noundef 21, ptr noundef null) #16
  tail call void @llvm.assume(i1 %11)
  %12 = tail call i32 @errcode(i32 noundef 8389) #15
  %13 = tail call i32 (ptr, ...) @errmsg(ptr noundef nonnull @.str) #15
  %14 = tail call i32 (ptr, ...) @errdetail(ptr noundef nonnull @.str.1, ptr noundef %1) #15
  tail call void @errfinish(ptr noundef nonnull @.str.2, i32 noundef 217, ptr noundef nonnull @__func__.GenerationContextCreate) #15
  unreachable

dlist_push_head.exit:                             ; preds = %5
  %15 = getelementptr inbounds nuw i8, ptr %7, i64 112
  %16 = getelementptr inbounds nuw i8, ptr %7, i64 120
  %17 = getelementptr inbounds nuw i8, ptr %7, i64 128
  %18 = add i64 %6, -128
  %19 = getelementptr inbounds nuw i8, ptr %7, i64 144
  store ptr %7, ptr %19, align 8
  %20 = getelementptr inbounds nuw i8, ptr %7, i64 152
  store i64 %18, ptr %20, align 8
  %21 = getelementptr inbounds nuw i8, ptr %7, i64 160
  store i32 0, ptr %21, align 8
  %22 = getelementptr inbounds nuw i8, ptr %7, i64 164
  store i32 0, ptr %22, align 4
  %23 = getelementptr inbounds nuw i8, ptr %7, i64 184
  %24 = getelementptr inbounds nuw i8, ptr %7, i64 168
  store ptr %23, ptr %24, align 8
  %25 = getelementptr i8, ptr %7, i64 %6
  %26 = getelementptr inbounds nuw i8, ptr %7, i64 176
  store ptr %25, ptr %26, align 8
  %27 = getelementptr inbounds nuw i8, ptr %7, i64 136
  store ptr %15, ptr %27, align 8
  store ptr %15, ptr %17, align 8
  store ptr %17, ptr %15, align 8
  store ptr %17, ptr %16, align 8
  %28 = getelementptr inbounds nuw i8, ptr %7, i64 96
  store ptr %17, ptr %28, align 8
  %29 = getelementptr inbounds nuw i8, ptr %7, i64 104
  store ptr null, ptr %29, align 8
  %30 = trunc i64 %3 to i32
  %31 = getelementptr inbounds nuw i8, ptr %7, i64 80
  store i32 %30, ptr %31, align 8
  %32 = trunc i64 %4 to i32
  %33 = getelementptr inbounds nuw i8, ptr %7, i64 84
  store i32 %32, ptr %33, align 4
  %34 = getelementptr inbounds nuw i8, ptr %7, i64 88
  store i32 %30, ptr %34, align 8
  %35 = tail call i64 @llvm.umin.i64(i64 %4, i64 1073741823)
  %36 = trunc nuw nsw i64 %35 to i32
  %37 = add i64 %4, -56
  %38 = lshr i64 %37, 3
  br label %39

39:                                               ; preds = %39, %dlist_push_head.exit
  %storemerge = phi i32 [ %36, %dlist_push_head.exit ], [ %42, %39 ]
  %narrow = add nuw nsw i32 %storemerge, 8
  %40 = zext nneg i32 %narrow to i64
  %41 = icmp samesign ult i64 %38, %40
  %42 = lshr i32 %storemerge, 1
  br i1 %41, label %39, label %43, !llvm.loop !4

43:                                               ; preds = %39
  %44 = getelementptr inbounds nuw i8, ptr %7, i64 92
  store i32 %storemerge, ptr %44, align 4
  tail call void @MemoryContextCreate(ptr noundef nonnull %7, i32 noundef 474, i32 noundef 4, ptr noundef %0, ptr noundef %1) #15
  %45 = getelementptr inbounds nuw i8, ptr %7, i64 8
  store i64 %18, ptr %45, align 8
  ret ptr %7
}